#include <math.h>
#include <stdio.h>
#include <stdlib.h>
#include <string.h>


int main()
{
	int m,a,k,b;
	scanf("%d",&m);

	if(m==6)
		printf("3 3\n");
	else
	{
		for(k=1;4*k+2<=m;k++)
		{
			a=2*k+1;
			b=m-a;

			int i=2;
			while(i*i<=a)
			{
				if(a%i==0) break;
				i++;
			}

			int j=2;
			while(j*j<=b)
			{
				if(b%j==0) break;
				j++;
			}

			if(i*i>a&&j*j>b) printf("%d %d\n",a,b);
		}
	}

	return 0;
}