; ModuleID = '43/914.c'
source_filename = "43/914.c"
target datalayout = "e-m:e-p270:32:32-p271:32:32-p272:64:64-i64:64-f80:128-n8:16:32:64-S128"
target triple = "x86_64-pc-linux-gnu"

@.str = private unnamed_addr constant [3 x i8] c"%d\00", align 1
@.str.1 = private unnamed_addr constant [5 x i8] c"3 3\0A\00", align 1
@.str.2 = private unnamed_addr constant [7 x i8] c"%d %d\0A\00", align 1

; Function Attrs: noinline nounwind uwtable
define dso_local i32 @main() #0 {
  %1 = alloca i32, align 4
  %2 = alloca i32, align 4
  %3 = alloca i32, align 4
  %4 = alloca i32, align 4
  %5 = alloca i32, align 4
  %6 = alloca i32, align 4
  %7 = alloca i32, align 4
  store i32 0, i32* %1, align 4
  %8 = call i32 (i8*, ...) @__isoc99_scanf(i8* getelementptr inbounds ([3 x i8], [3 x i8]* @.str, i64 0, i64 0), i32* %2)
  %9 = load i32, i32* %2, align 4
  %10 = icmp eq i32 %9, 6
  br i1 %10, label %11, label %13

11:                                               ; preds = %0
  %12 = call i32 (i8*, ...) @printf(i8* getelementptr inbounds ([5 x i8], [5 x i8]* @.str.1, i64 0, i64 0))
  br label %79

13:                                               ; preds = %0
  store i32 1, i32* %4, align 4
  br label %14

14:                                               ; preds = %75, %13
  %15 = load i32, i32* %4, align 4
  %16 = mul nsw i32 4, %15
  %17 = add nsw i32 %16, 2
  %18 = load i32, i32* %2, align 4
  %19 = icmp sle i32 %17, %18
  br i1 %19, label %20, label %78

20:                                               ; preds = %14
  %21 = load i32, i32* %4, align 4
  %22 = mul nsw i32 2, %21
  %23 = add nsw i32 %22, 1
  store i32 %23, i32* %3, align 4
  %24 = load i32, i32* %2, align 4
  %25 = load i32, i32* %3, align 4
  %26 = sub nsw i32 %24, %25
  store i32 %26, i32* %5, align 4
  store i32 2, i32* %6, align 4
  br label %27

27:                                               ; preds = %39, %20
  %28 = load i32, i32* %6, align 4
  %29 = load i32, i32* %6, align 4
  %30 = mul nsw i32 %28, %29
  %31 = load i32, i32* %3, align 4
  %32 = icmp sle i32 %30, %31
  br i1 %32, label %33, label %42

33:                                               ; preds = %27
  %34 = load i32, i32* %3, align 4
  %35 = load i32, i32* %6, align 4
  %36 = srem i32 %34, %35
  %37 = icmp eq i32 %36, 0
  br i1 %37, label %38, label %39

38:                                               ; preds = %33
  br label %42

39:                                               ; preds = %33
  %40 = load i32, i32* %6, align 4
  %41 = add nsw i32 %40, 1
  store i32 %41, i32* %6, align 4
  br label %27

42:                                               ; preds = %38, %27
  store i32 2, i32* %7, align 4
  br label %43

43:                                               ; preds = %55, %42
  %44 = load i32, i32* %7, align 4
  %45 = load i32, i32* %7, align 4
  %46 = mul nsw i32 %44, %45
  %47 = load i32, i32* %5, align 4
  %48 = icmp sle i32 %46, %47
  br i1 %48, label %49, label %58

49:                                               ; preds = %43
  %50 = load i32, i32* %5, align 4
  %51 = load i32, i32* %7, align 4
  %52 = srem i32 %50, %51
  %53 = icmp eq i32 %52, 0
  br i1 %53, label %54, label %55

54:                                               ; preds = %49
  br label %58

55:                                               ; preds = %49
  %56 = load i32, i32* %7, align 4
  %57 = add nsw i32 %56, 1
  store i32 %57, i32* %7, align 4
  br label %43

58:                                               ; preds = %54, %43
  %59 = load i32, i32* %6, align 4
  %60 = load i32, i32* %6, align 4
  %61 = mul nsw i32 %59, %60
  %62 = load i32, i32* %3, align 4
  %63 = icmp sgt i32 %61, %62
  br i1 %63, label %64, label %74

64:                                               ; preds = %58
  %65 = load i32, i32* %7, align 4
  %66 = load i32, i32* %7, align 4
  %67 = mul nsw i32 %65, %66
  %68 = load i32, i32* %5, align 4
  %69 = icmp sgt i32 %67, %68
  br i1 %69, label %70, label %74

70:                                               ; preds = %64
  %71 = load i32, i32* %3, align 4
  %72 = load i32, i32* %5, align 4
  %73 = call i32 (i8*, ...) @printf(i8* getelementptr inbounds ([7 x i8], [7 x i8]* @.str.2, i64 0, i64 0), i32 %71, i32 %72)
  br label %74

74:                                               ; preds = %70, %64, %58
  br label %75

75:                                               ; preds = %74
  %76 = load i32, i32* %4, align 4
  %77 = add nsw i32 %76, 1
  store i32 %77, i32* %4, align 4
  br label %14

78:                                               ; preds = %14
  br label %79

79:                                               ; preds = %78, %11
  ret i32 0
}

declare dso_local i32 @__isoc99_scanf(i8*, ...) #1

declare dso_local i32 @printf(i8*, ...) #1


!llvm.module.flags = !{!0}
!llvm.ident = !{!1}

!0 = !{i32 1, !"wchar_size", i32 4}
!1 = !{!"clang version 10.0.0-4ubuntu1 "}
